; Function Attrs: mustprogress uwtable
define internal noundef zeroext i1 @_ZNK4cvc58internal6theory5arith2nl12_GLOBAL__N_114ShouldTraverseclENS0_12NodeTemplateILb0EEE(ptr nocapture nonnull readnone align 8 %this, ptr nocapture noundef readonly %n) unnamed_addr #3 align 2 {
entry:
  %0 = load ptr, ptr %n, align 8
  %d_kind.i = getelementptr inbounds i8, ptr %0, i64 8
  %bf.load.i = load i16, ptr %d_kind.i, align 8
  %bf.clear.i = and i16 %bf.load.i, 1023
  %bf.cast.i = zext nneg i16 %bf.clear.i to i32
  %call2 = tail call noundef i32 @_ZN4cvc58internal6theory14kindToTheoryIdENS0_4kind6Kind_tE(i32 noundef %bf.cast.i)
  switch i32 %call2, label %sw.default [
    i32 1, label %return
    i32 0, label %return
    i32 3, label %sw.bb3
  ]

sw.bb3:                                           ; preds = %entry
  %1 = load ptr, ptr %n, align 8
  %d_kind.i1 = getelementptr inbounds i8, ptr %1, i64 8
  %bf.load.i2 = load i16, ptr %d_kind.i1, align 8
  %bf.clear.i3 = and i16 %bf.load.i2, 1023
  %bf.cast.i4 = zext nneg i16 %bf.clear.i3 to i32
  %call5 = tail call noundef zeroext i1 @_ZN4cvc58internal6theory5arith20isTranscendentalKindENS0_4kind6Kind_tE(i32 noundef %bf.cast.i4)
  %lnot = xor i1 %call5, true
  br label %return

sw.default:                                       ; preds = %entry
  br label %return

return:                                           ; preds = %entry, %entry, %sw.default, %sw.bb3
  %retval.0 = phi i1 [ false, %sw.default ], [ %lnot, %sw.bb3 ], [ true, %entry ], [ true, %entry ]
  ret i1 %retval.0
}